###############################################################################
#
# IAR ELF Linker V8.11.1.13263/W32 for ARM                19/Apr/2017  14:41:17
# Copyright 2007-2017 IAR Systems AB.
#
#    Output file  =  
#        D:\development\stm32\src_code\project_v5_stm32cubef1\en.stm32cubef1\STM32Cube_FW_F1_V1.4.0\Projects\STM32C8T6_wkxboot\app\freertos\FreeRTOS_multi_task\EWARM\STM3210C_EVAL\Exe\Project.out
#    Map file     =  
#        D:\development\stm32\src_code\project_v5_stm32cubef1\en.stm32cubef1\STM32Cube_FW_F1_V1.4.0\Projects\STM32C8T6_wkxboot\app\freertos\FreeRTOS_multi_task\EWARM\STM3210C_EVAL\List\Project.map
#    Command line =  
#        -f C:\Users\wkxbo\AppData\Local\Temp\EW80E3.tmp
#        (D:\development\stm32\src_code\project_v5_stm32cubef1\en.stm32cubef1\STM32Cube_FW_F1_V1.4.0\Projects\STM32C8T6_wkxboot\app\freertos\FreeRTOS_multi_task\EWARM\STM3210C_EVAL\Obj\cmsis_os.o
#        D:\development\stm32\src_code\project_v5_stm32cubef1\en.stm32cubef1\STM32Cube_FW_F1_V1.4.0\Projects\STM32C8T6_wkxboot\app\freertos\FreeRTOS_multi_task\EWARM\STM3210C_EVAL\Obj\debug.o
#        D:\development\stm32\src_code\project_v5_stm32cubef1\en.stm32cubef1\STM32Cube_FW_F1_V1.4.0\Projects\STM32C8T6_wkxboot\app\freertos\FreeRTOS_multi_task\EWARM\STM3210C_EVAL\Obj\heap_4.o
#        D:\development\stm32\src_code\project_v5_stm32cubef1\en.stm32cubef1\STM32Cube_FW_F1_V1.4.0\Projects\STM32C8T6_wkxboot\app\freertos\FreeRTOS_multi_task\EWARM\STM3210C_EVAL\Obj\list.o
#        D:\development\stm32\src_code\project_v5_stm32cubef1\en.stm32cubef1\STM32Cube_FW_F1_V1.4.0\Projects\STM32C8T6_wkxboot\app\freertos\FreeRTOS_multi_task\EWARM\STM3210C_EVAL\Obj\main.o
#        D:\development\stm32\src_code\project_v5_stm32cubef1\en.stm32cubef1\STM32Cube_FW_F1_V1.4.0\Projects\STM32C8T6_wkxboot\app\freertos\FreeRTOS_multi_task\EWARM\STM3210C_EVAL\Obj\port.o
#        D:\development\stm32\src_code\project_v5_stm32cubef1\en.stm32cubef1\STM32Cube_FW_F1_V1.4.0\Projects\STM32C8T6_wkxboot\app\freertos\FreeRTOS_multi_task\EWARM\STM3210C_EVAL\Obj\portasm.o
#        D:\development\stm32\src_code\project_v5_stm32cubef1\en.stm32cubef1\STM32Cube_FW_F1_V1.4.0\Projects\STM32C8T6_wkxboot\app\freertos\FreeRTOS_multi_task\EWARM\STM3210C_EVAL\Obj\queue.o
#        D:\development\stm32\src_code\project_v5_stm32cubef1\en.stm32cubef1\STM32Cube_FW_F1_V1.4.0\Projects\STM32C8T6_wkxboot\app\freertos\FreeRTOS_multi_task\EWARM\STM3210C_EVAL\Obj\startup_stm32f103xb.o
#        D:\development\stm32\src_code\project_v5_stm32cubef1\en.stm32cubef1\STM32Cube_FW_F1_V1.4.0\Projects\STM32C8T6_wkxboot\app\freertos\FreeRTOS_multi_task\EWARM\STM3210C_EVAL\Obj\stm3210c_wkxboot.o
#        D:\development\stm32\src_code\project_v5_stm32cubef1\en.stm32cubef1\STM32Cube_FW_F1_V1.4.0\Projects\STM32C8T6_wkxboot\app\freertos\FreeRTOS_multi_task\EWARM\STM3210C_EVAL\Obj\stm32f1xx_hal.o
#        D:\development\stm32\src_code\project_v5_stm32cubef1\en.stm32cubef1\STM32Cube_FW_F1_V1.4.0\Projects\STM32C8T6_wkxboot\app\freertos\FreeRTOS_multi_task\EWARM\STM3210C_EVAL\Obj\stm32f1xx_hal_cortex.o
#        D:\development\stm32\src_code\project_v5_stm32cubef1\en.stm32cubef1\STM32Cube_FW_F1_V1.4.0\Projects\STM32C8T6_wkxboot\app\freertos\FreeRTOS_multi_task\EWARM\STM3210C_EVAL\Obj\stm32f1xx_hal_dma.o
#        D:\development\stm32\src_code\project_v5_stm32cubef1\en.stm32cubef1\STM32Cube_FW_F1_V1.4.0\Projects\STM32C8T6_wkxboot\app\freertos\FreeRTOS_multi_task\EWARM\STM3210C_EVAL\Obj\stm32f1xx_hal_gpio.o
#        D:\development\stm32\src_code\project_v5_stm32cubef1\en.stm32cubef1\STM32Cube_FW_F1_V1.4.0\Projects\STM32C8T6_wkxboot\app\freertos\FreeRTOS_multi_task\EWARM\STM3210C_EVAL\Obj\stm32f1xx_hal_msp.o
#        D:\development\stm32\src_code\project_v5_stm32cubef1\en.stm32cubef1\STM32Cube_FW_F1_V1.4.0\Projects\STM32C8T6_wkxboot\app\freertos\FreeRTOS_multi_task\EWARM\STM3210C_EVAL\Obj\stm32f1xx_hal_rcc.o
#        D:\development\stm32\src_code\project_v5_stm32cubef1\en.stm32cubef1\STM32Cube_FW_F1_V1.4.0\Projects\STM32C8T6_wkxboot\app\freertos\FreeRTOS_multi_task\EWARM\STM3210C_EVAL\Obj\stm32f1xx_hal_rcc_ex.o
#        D:\development\stm32\src_code\project_v5_stm32cubef1\en.stm32cubef1\STM32Cube_FW_F1_V1.4.0\Projects\STM32C8T6_wkxboot\app\freertos\FreeRTOS_multi_task\EWARM\STM3210C_EVAL\Obj\stm32f1xx_hal_uart.o
#        D:\development\stm32\src_code\project_v5_stm32cubef1\en.stm32cubef1\STM32Cube_FW_F1_V1.4.0\Projects\STM32C8T6_wkxboot\app\freertos\FreeRTOS_multi_task\EWARM\STM3210C_EVAL\Obj\stm32f1xx_it.o
#        D:\development\stm32\src_code\project_v5_stm32cubef1\en.stm32cubef1\STM32Cube_FW_F1_V1.4.0\Projects\STM32C8T6_wkxboot\app\freertos\FreeRTOS_multi_task\EWARM\STM3210C_EVAL\Obj\system_stm32f1xx.o
#        D:\development\stm32\src_code\project_v5_stm32cubef1\en.stm32cubef1\STM32Cube_FW_F1_V1.4.0\Projects\STM32C8T6_wkxboot\app\freertos\FreeRTOS_multi_task\EWARM\STM3210C_EVAL\Obj\tasks.o
#        D:\development\stm32\src_code\project_v5_stm32cubef1\en.stm32cubef1\STM32Cube_FW_F1_V1.4.0\Projects\STM32C8T6_wkxboot\app\freertos\FreeRTOS_multi_task\EWARM\STM3210C_EVAL\Obj\timers.o
#        --redirect _Printf=_PrintfSmall --redirect _Scanf=_ScanfSmall -o
#        D:\development\stm32\src_code\project_v5_stm32cubef1\en.stm32cubef1\STM32Cube_FW_F1_V1.4.0\Projects\STM32C8T6_wkxboot\app\freertos\FreeRTOS_multi_task\EWARM\STM3210C_EVAL\Exe\Project.out
#        --map
#        D:\development\stm32\src_code\project_v5_stm32cubef1\en.stm32cubef1\STM32Cube_FW_F1_V1.4.0\Projects\STM32C8T6_wkxboot\app\freertos\FreeRTOS_multi_task\EWARM\STM3210C_EVAL\List\Project.map
#        --config
#        D:\development\stm32\src_code\project_v5_stm32cubef1\en.stm32cubef1\STM32Cube_FW_F1_V1.4.0\Projects\STM32C8T6_wkxboot\app\freertos\FreeRTOS_multi_task\EWARM\stm32f107xc_flash.icf
#        --semihosting --entry __iar_program_start --vfe --text_out locale)
#
###############################################################################

*******************************************************************************
*** RUNTIME MODEL ATTRIBUTES
***

CppFlavor       = *
__SystemLibrary = DLib
__dlib_version  = 6


*******************************************************************************
*** HEAP SELECTION
***

The basic heap was selected because no calls to memory allocation
functions were found in the application outside of system library
functions, and there are calls to deallocation functions in the
application.


*******************************************************************************
*** PLACEMENT SUMMARY
***

"A0":  place at 0x08000000 { ro section .intvec };
"P1":  place in [from 0x08000000 to 0x0803ffff] { ro };
"P2":  place in [from 0x20000000 to 0x2000ffff] { rw, block CSTACK, block HEAP };
initialize by copy { rw };

  Section            Kind        Address    Size  Object
  -------            ----        -------    ----  ------
"A0":                                       0xec
  .intvec            ro code  0x08000000    0xec  startup_stm32f103xb.o [1]
                            - 0x080000ec    0xec

"P1":                                     0x39f4
  .text              ro code  0x080000ec  0x2efc  cmsis_os.o [1]
  .text              ro code  0x08002fe8    0x28  printf.o [3]
  CODE               ro code  0x08003010    0x94  portasm.o [1]
  .text              ro code  0x080030a4    0xa6  ABImemcpy.o [4]
  .text              ro code  0x0800314c    0x36  strlen.o [4]
  .text              ro code  0x08003184     0x6  ABImemclr4.o [4]
  .text              ro code  0x0800318a    0x24  cmsis_os.o [1]
  .text              ro code  0x080031ae     0x2  cmsis_os.o [1]
  .text              ro code  0x080031b0     0xc  cmsis_os.o [1]
  .text              ro code  0x080031bc    0x18  cmsis_os.o [1]
  .text              ro code  0x080031d4     0x2  cmsis_os.o [1]
  .text              ro code  0x080031d6     0x2  cmsis_os.o [1]
  .text              ro code  0x080031d8     0x2  cmsis_os.o [1]
  .text              ro code  0x080031dc    0x10  cmsis_os.o [1]
  .text              ro code  0x080031ec    0x3a  ABImemset48.o [4]
  .text              ro code  0x08003228   0x518  xprintfsmall.o [3]
  .text              ro code  0x08003740    0x64  xlocale_c.o [3]
  .text              ro code  0x080037a4    0x16  strchr.o [4]
  .text              ro code  0x080037bc    0x44  xfail_s.o [3]
  .text              ro code  0x08003800    0x58  memchr.o [4]
  .text              ro code  0x08003858     0x6  abort.o [3]
  .text              ro code  0x08003860    0x14  exit.o [5]
  .text              ro code  0x08003874    0x40  zero_init3.o [4]
  .text              ro code  0x080038b4    0x38  packbits_init_single.o [4]
  .rodata            const    0x080038ec    0x34  cmsis_os.o [1]
  .text              ro code  0x08003920    0x28  data_init.o [4]
  .iar.init_table    const    0x08003948    0x20  - Linker created -
  .text              ro code  0x08003968    0x1a  cmain.o [4]
  .text              ro code  0x08003982     0x4  low_level_init.o [3]
  .text              ro code  0x08003986     0x4  exit.o [3]
  .text              ro code  0x0800398c     0xa  cexit.o [4]
  .text              ro code  0x08003996    0x16  xprout.o [3]
  .text              ro code  0x080039ac     0xc  putchar.o [3]
  .text              ro code  0x080039b8    0x10  startup_stm32f103xb.o [1]
  .text              ro code  0x080039c8     0xc  cstartup_M.o [4]
  .text              ro code  0x080039d4     0xc  xencoding_8859_1.o [3]
  .text              ro code  0x080039e0     0x4  startup_stm32f103xb.o [1]
  .text              ro code  0x080039e4     0x4  startup_stm32f103xb.o [1]
  .text              ro code  0x080039e8     0x4  startup_stm32f103xb.o [1]
  .text              ro code  0x080039ec     0x4  startup_stm32f103xb.o [1]
  .text              ro code  0x080039f0     0x4  startup_stm32f103xb.o [1]
  .text              ro code  0x080039f4     0x4  startup_stm32f103xb.o [1]
  .text              ro code  0x080039f8     0x4  startup_stm32f103xb.o [1]
  .text              ro code  0x080039fc     0x4  startup_stm32f103xb.o [1]
  .text              ro code  0x08003a00     0x4  startup_stm32f103xb.o [1]
  .text              ro code  0x08003a04     0x4  startup_stm32f103xb.o [1]
  .text              ro code  0x08003a08     0x4  startup_stm32f103xb.o [1]
  .text              ro code  0x08003a0c     0x4  startup_stm32f103xb.o [1]
  .text              ro code  0x08003a10     0x4  startup_stm32f103xb.o [1]
  .text              ro code  0x08003a14     0x4  startup_stm32f103xb.o [1]
  .text              ro code  0x08003a18     0x4  startup_stm32f103xb.o [1]
  .text              ro code  0x08003a1c     0x4  startup_stm32f103xb.o [1]
  .text              ro code  0x08003a20     0x4  startup_stm32f103xb.o [1]
  .text              ro code  0x08003a24     0x4  startup_stm32f103xb.o [1]
  .text              ro code  0x08003a28     0x4  startup_stm32f103xb.o [1]
  .text              ro code  0x08003a2c     0x4  startup_stm32f103xb.o [1]
  .text              ro code  0x08003a30     0x4  startup_stm32f103xb.o [1]
  .text              ro code  0x08003a34     0x4  startup_stm32f103xb.o [1]
  .text              ro code  0x08003a38     0x4  startup_stm32f103xb.o [1]
  .text              ro code  0x08003a3c     0x4  startup_stm32f103xb.o [1]
  .text              ro code  0x08003a40     0x4  startup_stm32f103xb.o [1]
  .text              ro code  0x08003a44     0x4  startup_stm32f103xb.o [1]
  .text              ro code  0x08003a48     0x4  startup_stm32f103xb.o [1]
  .text              ro code  0x08003a4c     0x4  startup_stm32f103xb.o [1]
  .text              ro code  0x08003a50     0x4  startup_stm32f103xb.o [1]
  .text              ro code  0x08003a54     0x4  startup_stm32f103xb.o [1]
  .text              ro code  0x08003a58     0x4  startup_stm32f103xb.o [1]
  .text              ro code  0x08003a5c     0x4  startup_stm32f103xb.o [1]
  .text              ro code  0x08003a60     0x4  startup_stm32f103xb.o [1]
  .text              ro code  0x08003a64     0x4  startup_stm32f103xb.o [1]
  .text              ro code  0x08003a68     0x4  startup_stm32f103xb.o [1]
  .text              ro code  0x08003a6c     0x4  startup_stm32f103xb.o [1]
  .text              ro code  0x08003a70     0x4  startup_stm32f103xb.o [1]
  .text              ro code  0x08003a74     0x4  startup_stm32f103xb.o [1]
  .text              ro code  0x08003a78     0x4  startup_stm32f103xb.o [1]
  .text              ro code  0x08003a7c     0x4  startup_stm32f103xb.o [1]
  .rodata            const    0x08003a80     0x2  xlocale_c.o [3]
  .rodata            const    0x08003a82     0x0  zero_init3.o [4]
  .rodata            const    0x08003a82     0x0  packbits_init_single.o [4]
  Initializer bytes  const    0x08003a82    0x5e  <for P2-1>
                            - 0x08003ae0  0x39f4

"P2", part 1 of 3:                         0x188
  P2-1                        0x20000000   0x188  <Init block>
    .data            inited   0x20000000    0x80  cmsis_os.o [1]
    .data            inited   0x20000080    0x5c  cmsis_os.o [1]
    .data            inited   0x200000dc     0xc  cmsis_os.o [1]
    .data            inited   0x200000e8    0x10  cmsis_os.o [1]
    .data            inited   0x200000f8    0x48  xlocale_c.o [3]
    .data            inited   0x20000140    0x48  xfiles.o [3]
                            - 0x20000188   0x188

"P2", part 2 of 3:                         0x400
  CSTACK                      0x20000188   0x400  <Block>
    CSTACK           uninit   0x20000188   0x400  <Block tail>
                            - 0x20000588   0x400

"P2", part 3 of 3:                        0x2998
  .bss               zero     0x20000588  0x2818  cmsis_os.o [1]
  .bss               zero     0x20002da0    0x9c  cmsis_os.o [1]
  .bss               zero     0x20002e3c    0x8c  cmsis_os.o [1]
  .bss               zero     0x20002ec8    0x50  xfiles.o [3]
  .bss               zero     0x20002f18     0x4  cmsis_os.o [1]
  .bss               zero     0x20002f1c     0x4  xfail_s.o [3]
                            - 0x20002f20  0x2998


*******************************************************************************
*** INIT TABLE
***

          Address     Size
          -------     ----
Zero (__iar_zero_init3)
    1 destination range, total size 0x2998:
          0x20000588  0x2998

Copy/packbits (__iar_packbits_init_single3)
    1 source range, total size 0x5e (23% of destination):
          0x08003a82    0x5e
    1 destination range, total size 0x188:
          0x20000000   0x188



*******************************************************************************
*** MODULE SUMMARY
***

    Module                  ro code  ro data  rw data
    ------                  -------  -------  -------
D:\development\stm32\src_code\project_v5_stm32cubef1\en.stm32cubef1\STM32Cube_FW_F1_V1.4.0\Projects\STM32C8T6_wkxboot\app\freertos\FreeRTOS_multi_task\EWARM\STM3210C_EVAL\Obj: [1]
    cmsis_os.o               12 124      111   10 812
    portasm.o                   148
    startup_stm32f103xb.o       412
    -------------------------------------------------
    Total:                   12 684      111   10 812

command line: [2]
    -------------------------------------------------
    Total:

dl7M_tlf.a: [3]
    abort.o                       6
    exit.o                        4
    low_level_init.o              4
    printf.o                     40
    putchar.o                    12
    xencoding_8859_1.o           12
    xfail_s.o                    68                 4
    xfiles.o                              18      152
    xlocale_c.o                 100       19       72
    xprintfsmall.o            1 304
    xprout.o                     22
    -------------------------------------------------
    Total:                    1 572       37      228

rt7M_tl.a: [4]
    ABImemclr4.o                  6
    ABImemcpy.o                 166
    ABImemset48.o                58
    cexit.o                      10
    cmain.o                      26
    cstartup_M.o                 12
    data_init.o                  40
    memchr.o                     88
    packbits_init_single.o       56
    strchr.o                     22
    strlen.o                     54
    zero_init3.o                 64
    -------------------------------------------------
    Total:                      602

shb_l.a: [5]
    exit.o                       20
    -------------------------------------------------
    Total:                       20

    Gaps                         14
    Linker created                        32    1 024
-----------------------------------------------------
    Grand Total:             14 892      180   12 064


*******************************************************************************
*** ENTRY LIST
***

Entry                      Address   Size  Type      Object
-----                      -------   ----  ----      ------
.iar.init_table$$Base   0x08003948          --   Gb  - Linker created -
.iar.init_table$$Limit  0x08003968          --   Gb  - Linker created -
?main                   0x08003969         Code  Gb  cmain.o [4]
AHBPrescTable           0x080027d4   0x10  Data  Gb  cmsis_os.o [1]
APBPrescTable           0x08002004    0x8  Data  Gb  cmsis_os.o [1]
BSP_LED_Init            0x08001309   0xb0  Code  Gb  cmsis_os.o [1]
BSP_LED_Off             0x080013cf   0x16  Code  Gb  cmsis_os.o [1]
BSP_LED_On              0x080013b9   0x16  Code  Gb  cmsis_os.o [1]
BusFault_Handler        0x08002765    0x2  Code  Gb  cmsis_os.o [1]
CSTACK$$Base            0x20000188          --   Gb  - Linker created -
CSTACK$$Limit           0x20000588          --   Gb  - Linker created -
CacheMore               0x08003741   0x24  Code  Lc  xlocale_c.o [3]
DMA1_Channel6_IRQHandler
                        0x08002783    0xa  Code  Gb  cmsis_os.o [1]
DMA1_Channel7_IRQHandler
                        0x08002779    0xa  Code  Gb  cmsis_os.o [1]
DebugMon_Handler        0x08002769    0x2  Code  Gb  cmsis_os.o [1]
HAL_DMA_IRQHandler      0x080015b9  0x2a8  Code  Gb  cmsis_os.o [1]
HAL_DMA_Init            0x08001509   0x50  Code  Gb  cmsis_os.o [1]
HAL_DMA_Start_IT        0x08001559   0x58  Code  Gb  cmsis_os.o [1]
HAL_GPIO_Init           0x0800188d  0x19a  Code  Gb  cmsis_os.o [1]
HAL_GPIO_WritePin       0x08001a35    0xe  Code  Gb  cmsis_os.o [1]
HAL_Init                0x080013fd   0x22  Code  Gb  cmsis_os.o [1]
HAL_NVIC_EnableIRQ      0x08001505    0x2  Code  Gb  cmsis_os.o [1]
HAL_NVIC_SetPriority    0x080014e7   0x1e  Code  Gb  cmsis_os.o [1]
HAL_NVIC_SetPriorityGrouping
                        0x080014e5    0x2  Code  Gb  cmsis_os.o [1]
HAL_RCC_ClockConfig     0x08001e27  0x156  Code  Gb  cmsis_os.o [1]
HAL_RCC_GetHCLKFreq     0x08001fcf    0x6  Code  Gb  cmsis_os.o [1]
HAL_RCC_GetPCLK1Freq    0x08001fd5   0x18  Code  Gb  cmsis_os.o [1]
HAL_RCC_GetPCLK2Freq    0x08001fed   0x18  Code  Gb  cmsis_os.o [1]
HAL_RCC_GetSysClockFreq
                        0x08001f7d   0x3e  Code  Gb  cmsis_os.o [1]
HAL_RCC_GetSysClockFreq::aPLLMULFactorTable
                        0x08001fbc   0x10  Data  Lc  cmsis_os.o [1]
HAL_RCC_GetSysClockFreq::aPredivFactorTable
                        0x08001fcc    0x2  Data  Lc  cmsis_os.o [1]
HAL_RCC_OscConfig       0x08001ad5  0x352  Code  Gb  cmsis_os.o [1]
HAL_SYSTICK_Config      0x08001507    0x2  Code  Gb  cmsis_os.o [1]
HAL_UART_IRQHandler     0x08002285   0xf2  Code  Gb  cmsis_os.o [1]
HAL_UART_Init           0x08002069   0x5c  Code  Gb  cmsis_os.o [1]
HAL_UART_MspInit        0x08001a49   0x6e  Code  Gb  cmsis_os.o [1]
HAL_UART_Receive_DMA    0x0800220b   0x7a  Code  Gb  cmsis_os.o [1]
HAL_UART_RxCpltCallback
                        0x08000937    0xe  Code  Gb  cmsis_os.o [1]
HAL_UART_Transmit       0x080020c5   0xc4  Code  Gb  cmsis_os.o [1]
HAL_UART_Transmit_DMA   0x08002189   0x82  Code  Gb  cmsis_os.o [1]
HAL_UART_TxCpltCallback
                        0x08000945   0x18  Code  Gb  cmsis_os.o [1]
HardFault_Handler       0x08002761    0x2  Code  Gb  cmsis_os.o [1]
LEDThread1Handle        0x20000070    0x4  Data  Gb  cmsis_os.o [1]
LED_PIN                 0x080013e4    0x8  Data  Gb  cmsis_os.o [1]
LED_PORT                0x200000e8   0x10  Data  Gb  cmsis_os.o [1]
LoadInt                 0x08003487   0x56  Code  Lc  xprintfsmall.o [3]
MemManage_Handler       0x08002763    0x2  Code  Gb  cmsis_os.o [1]
NMI_Handler             0x0800275f    0x2  Code  Gb  cmsis_os.o [1]
PendSV_Handler          0x08003011         Code  Gb  portasm.o [1]
Region$$Table$$Base     0x08003948          --   Gb  - Linker created -
Region$$Table$$Limit    0x08003968          --   Gb  - Linker created -
SVC_Handler             0x08003063         Code  Gb  portasm.o [1]
SysTick_Handler         0x0800276b    0xe  Code  Gb  cmsis_os.o [1]
SystemClock_Config      0x080008d7   0x60  Code  Gb  cmsis_os.o [1]
SystemCoreClock         0x2000007c    0x4  Data  Gb  cmsis_os.o [1]
SystemInit              0x08002793   0x42  Code  Gb  cmsis_os.o [1]
USART2_IRQHandler       0x0800278d    0x6  Code  Gb  cmsis_os.o [1]
UartHandle              0x20000080   0x40  Data  Gb  cmsis_os.o [1]
UsageFault_Handler      0x08002767    0x2  Code  Gb  cmsis_os.o [1]
[D:\development\stm32\src_code\project_v5_stm32cubef1\en.stm32cubef1\STM32Cube_FW_F1_V1.4.0\Projects\STM32C8T6_wkxboot\app\freertos\FreeRTOS_multi_task\Src\main.c]uart_it_Thread::__FUNCTION__
                        0x08000a38   0x10  Data  Lc  cmsis_os.o [1]
_Encoding_8859_1_Mbrlen
                        0x080039d5    0x2  Code  Gb  xencoding_8859_1.o [3]
_LitobSmall             0x08003619   0xce  Code  Lc  xprintfsmall.o [3]
_PrintfSmall            0x08003229  0x252  Code  Gb  xprintfsmall.o [3]
_Prout                  0x08003997   0x16  Code  Gb  xprout.o [3]
_PutcharsSmall          0x080036e7   0x2e  Code  Lc  xprintfsmall.o [3]
_PutfldSmall            0x080034dd  0x13c  Code  Lc  xprintfsmall.o [3]
__aeabi_memclr4         0x08003185         Code  Gb  ABImemclr4.o [4]
__aeabi_memcpy          0x080030a5         Code  Gb  ABImemcpy.o [4]
__aeabi_memcpy4         0x080030c5         Code  Gb  ABImemcpy.o [4]
__aeabi_memcpy8         0x080030c5         Code  Gb  ABImemcpy.o [4]
__aeabi_memset4         0x080031ed         Code  Gb  ABImemset48.o [4]
__aeabi_memset8         0x080031ed         Code  Gb  ABImemset48.o [4]
__cmain                 0x08003969         Code  Gb  cmain.o [4]
__exit                  0x08003861   0x14  Code  Gb  exit.o [5]
__iar_Fail_s            0x080037bd   0x1e  Code  Gb  xfail_s.o [3]
__iar_Memchr            0x08003801         Code  Gb  memchr.o [4]
__iar_Memset4_word      0x080031f5         Code  Gb  ABImemset48.o [4]
__iar_Memset8_word      0x080031f5         Code  Gb  ABImemset48.o [4]
__iar_Stdout            0x20000140   0x48  Data  Gb  xfiles.o [3]
__iar_Strchr            0x080037a5         Code  Gb  strchr.o [4]
__iar_data_init3        0x08003921   0x28  Code  Gb  data_init.o [4]
__iar_globLocale        0x200000f8   0x48  Data  Lc  xlocale_c.o [3]
__iar_packbits_init_single3
                        0x080038b5   0x38  Code  Gb  packbits_init_single.o [4]
__iar_program_start     0x080039c9         Code  Gb  cstartup_M.o [4]
__iar_systems$$module {Abs}
                        0x00000001         Data  Gb  command line/config [2]
__iar_zero_init3        0x08003875   0x40  Code  Gb  zero_init3.o [4]
__low_level_init        0x08003983    0x4  Code  Gb  low_level_init.o [3]
__vector_table          0x08000000         Data  Gb  startup_stm32f103xb.o [1]
_call_main              0x08003975         Code  Gb  cmain.o [4]
_exit                   0x0800398d         Code  Gb  cexit.o [4]
_gLocale_mblen          0x0800379d    0x4  Code  Gb  xlocale_c.o [3]
_gLocale_mblenInt       0x08003765   0x2c  Code  Gb  xlocale_c.o [3]
_main                   0x0800397f         Code  Gb  cmain.o [4]
abort                   0x08003859    0x6  Code  Gb  abort.o [3]
dma_handle              0x20000000   0x38  Data  Gb  cmsis_os.o [1]
dma_handle_recv         0x20000038   0x38  Data  Gb  cmsis_os.o [1]
do_something            0x08000265   0x26  Code  Gb  cmsis_os.o [1]
do_something::__FUNCTION__
                        0x0800028c   0x10  Data  Lc  cmsis_os.o [1]
exit                    0x08003987    0x4  Code  Gb  exit.o [3]
fputc                   0x08000b9d   0x14  Code  Gb  cmsis_os.o [1]
main                    0x080005b7  0x1a0  Code  Gb  cmsis_os.o [1]
memchr                  0x08003801         Code  Gb  memchr.o [4]
obuf                    0x20002ec8   0x50  Data  Lc  xfiles.o [3]
osDelay                 0x08000165   0x10  Code  Gb  cmsis_os.o [1]
osKernelStart           0x08000109    0xa  Code  Gb  cmsis_os.o [1]
osKernelSysTick         0x08000113   0x1a  Code  Gb  cmsis_os.o [1]
osSemaphoreCreate       0x08000175   0x2e  Code  Gb  cmsis_os.o [1]
osSemaphoreRelease      0x08000205   0x4a  Code  Gb  cmsis_os.o [1]
osSemaphoreWait         0x080001a3   0x62  Code  Gb  cmsis_os.o [1]
osSystickHandler        0x0800024f   0x14  Code  Gb  cmsis_os.o [1]
osThreadCreate          0x0800012d   0x38  Code  Gb  cmsis_os.o [1]
os_semaphore_def_def_uart
                        0x08000a20    0x4  Data  Gb  cmsis_os.o [1]
printf                  0x08002fe9   0x28  Code  Gb  printf.o [3]
putchar                 0x080039ad    0xc  Code  Gb  putchar.o [3]
pvPortMalloc            0x08000375   0xc0  Code  Gb  cmsis_os.o [1]
pvTaskIncrementMutexHeldCount
                        0x08002fa3   0x16  Code  Gb  cmsis_os.o [1]
pxCurrentTCB            0x20002dc8    0x4  Data  Gb  cmsis_os.o [1]
pxPortInitialiseStack   0x08000bb1   0x1e  Code  Gb  cmsis_os.o [1]
recv_store              0x200000c8   0x14  Data  Gb  cmsis_os.o [1]
sec_hand                0x20002f1c    0x4  Data  Lc  xfail_s.o [3]
sem_uart                0x200000c4    0x4  Data  Gb  cmsis_os.o [1]
strchr                  0x080037a5         Code  Gb  strchr.o [4]
string2                 0x200000c0    0x4  Data  Gb  cmsis_os.o [1]
strlen                  0x0800314d         Code  Gb  strlen.o [4]
uart_dma_ThreadHandle   0x20000074    0x4  Data  Gb  cmsis_os.o [1]
uart_it_ThreadHandle    0x20000078    0x4  Data  Gb  cmsis_os.o [1]
ulPortSetInterruptMask  0x0800304f         Code  Gb  portasm.o [1]
uxListRemove            0x08000593   0x24  Code  Gb  cmsis_os.o [1]
vApplicationStackOverflowHook
                        0x080008cf    0x8  Code  Gb  cmsis_os.o [1]
vListInitialise         0x08000527   0x1a  Code  Gb  cmsis_os.o [1]
vListInitialiseItem     0x08000541    0x6  Code  Gb  cmsis_os.o [1]
vListInsert             0x0800055f   0x34  Code  Gb  cmsis_os.o [1]
vListInsertEnd          0x08000547   0x18  Code  Gb  cmsis_os.o [1]
vPortClearInterruptMask
                        0x0800305d         Code  Gb  portasm.o [1]
vPortEnterCritical      0x08000c6f   0x30  Code  Gb  cmsis_os.o [1]
vPortExitCritical       0x08000c9f   0x24  Code  Gb  cmsis_os.o [1]
vPortFree               0x08000435   0x52  Code  Gb  cmsis_os.o [1]
vPortStartFirstTask     0x08003083         Code  Gb  portasm.o [1]
vPortValidateInterruptPriority
                        0x08000ce9   0x38  Code  Gb  cmsis_os.o [1]
vPortYield              0x08000c5b   0x14  Code  Gb  cmsis_os.o [1]
vTaskDelay              0x080028db   0x54  Code  Gb  cmsis_os.o [1]
vTaskMissedYield        0x08002cb5    0x8  Code  Gb  cmsis_os.o [1]
vTaskPlaceOnEventList   0x08002b77   0x56  Code  Gb  cmsis_os.o [1]
vTaskPriorityInherit    0x08002ea9   0x7a  Code  Gb  cmsis_os.o [1]
vTaskSetTimeOutState    0x08002c39   0x18  Code  Gb  cmsis_os.o [1]
vTaskStartScheduler     0x0800292f   0x50  Code  Gb  cmsis_os.o [1]
vTaskSuspendAll         0x0800297f    0xc  Code  Gb  cmsis_os.o [1]
vTaskSwitchContext      0x08002b0d   0x6a  Code  Gb  cmsis_os.o [1]
xPortStartScheduler     0x08000beb   0x70  Code  Gb  cmsis_os.o [1]
xPortSysTickHandler     0x08000cc3   0x22  Code  Gb  cmsis_os.o [1]
xQueueCreateCountingSemaphore
                        0x08000e09   0x30  Code  Gb  cmsis_os.o [1]
xQueueGenericCreate     0x08000dab   0x5e  Code  Gb  cmsis_os.o [1]
xQueueGenericReceive    0x08000ff7  0x14e  Code  Gb  cmsis_os.o [1]
xQueueGenericReset      0x08000d39   0x72  Code  Gb  cmsis_os.o [1]
xQueueGenericSend       0x08000e39  0x134  Code  Gb  cmsis_os.o [1]
xQueueGiveFromISR       0x08000f6d   0x8a  Code  Gb  cmsis_os.o [1]
xQueueReceiveFromISR    0x08001145   0x84  Code  Gb  cmsis_os.o [1]
xTaskCheckForTimeOut    0x08002c51   0x60  Code  Gb  cmsis_os.o [1]
xTaskGenericCreate      0x080027e5   0xf6  Code  Gb  cmsis_os.o [1]
xTaskGetSchedulerState  0x08002e89   0x1c  Code  Gb  cmsis_os.o [1]
xTaskGetTickCount       0x08002a2f    0x8  Code  Gb  cmsis_os.o [1]
xTaskGetTickCountFromISR
                        0x08002a37    0xe  Code  Gb  cmsis_os.o [1]
xTaskIncrementTick      0x08002a45   0xc8  Code  Gb  cmsis_os.o [1]
xTaskPriorityDisinherit
                        0x08002f23   0x80  Code  Gb  cmsis_os.o [1]
xTaskRemoveFromEventList
                        0x08002bcd   0x68  Code  Gb  cmsis_os.o [1]
xTaskResumeAll          0x0800298b   0xa4  Code  Gb  cmsis_os.o [1]


[1] = D:\development\stm32\src_code\project_v5_stm32cubef1\en.stm32cubef1\STM32Cube_FW_F1_V1.4.0\Projects\STM32C8T6_wkxboot\app\freertos\FreeRTOS_multi_task\EWARM\STM3210C_EVAL\Obj
[2] = command line
[3] = dl7M_tlf.a
[4] = rt7M_tl.a
[5] = shb_l.a

  14 892 bytes of readonly  code memory
     180 bytes of readonly  data memory
  12 064 bytes of readwrite data memory

Errors: none
Warnings: none
